target datalayout = "e-m:e-p270:32:32-p271:32:32-p272:64:64-i64:64-i128:128-f80:128-n8:16:32:64-S128"
target triple = "x86_64-pc-linux-gnu"

%struct.lv_point_t = type { i32, i32 }
%union.lv_style_value_t = type { ptr }
%struct.lv_area_t = type { i32, i32, i32, i32 }
%struct._lv_obj_t = type { ptr, ptr, ptr, ptr, ptr, %struct.lv_area_t, i32, i16, i16 }

; Function Attrs: inlinehint nounwind uwtable
define internal i32 @lv_obj_get_style_transform_scale_y(ptr noundef %0, i32 noundef %1) #3 {
  %3 = alloca ptr, align 8
  %4 = alloca i32, align 4
  %5 = alloca %union.lv_style_value_t, align 8
  store ptr %0, ptr %3, align 8, !tbaa !3
  store i32 %1, ptr %4, align 4, !tbaa !7
  call void @llvm.lifetime.start.p0(i64 8, ptr %5) #5
  %6 = load ptr, ptr %3, align 8, !tbaa !3
  %7 = load i32, ptr %4, align 4, !tbaa !7
  %8 = call ptr @lv_obj_get_style_prop(ptr noundef %6, i32 noundef %7, i8 noundef zeroext 109)
  %9 = getelementptr inbounds nuw %union.lv_style_value_t, ptr %5, i32 0, i32 0
  store ptr %8, ptr %9, align 8
  %10 = load i32, ptr %5, align 8, !tbaa !9
  call void @llvm.lifetime.end.p0(i64 8, ptr %5) #5
  ret i32 %10
}

; Function Attrs: inlinehint nounwind uwtable
define internal i32 @lv_obj_get_style_transform_scale_x(ptr noundef %0, i32 noundef %1) #3 {
  %3 = alloca ptr, align 8
  %4 = alloca i32, align 4
  %5 = alloca %union.lv_style_value_t, align 8
  store ptr %0, ptr %3, align 8, !tbaa !3
  store i32 %1, ptr %4, align 4, !tbaa !7
  call void @llvm.lifetime.start.p0(i64 8, ptr %5) #5
  %6 = load ptr, ptr %3, align 8, !tbaa !3
  %7 = load i32, ptr %4, align 4, !tbaa !7
  %8 = call ptr @lv_obj_get_style_prop(ptr noundef %6, i32 noundef %7, i8 noundef zeroext 108)
  %9 = getelementptr inbounds nuw %union.lv_style_value_t, ptr %5, i32 0, i32 0
  store ptr %8, ptr %9, align 8
  %10 = load i32, ptr %5, align 8, !tbaa !9
  call void @llvm.lifetime.end.p0(i64 8, ptr %5) #5
  ret i32 %10
}

; Function Attrs: inlinehint nounwind uwtable
define internal i32 @lv_obj_get_style_transform_pivot_y(ptr noundef %0, i32 noundef %1) #3 {
  %3 = alloca ptr, align 8
  %4 = alloca i32, align 4
  %5 = alloca %union.lv_style_value_t, align 8
  store ptr %0, ptr %3, align 8, !tbaa !3
  store i32 %1, ptr %4, align 4, !tbaa !7
  call void @llvm.lifetime.start.p0(i64 8, ptr %5) #5
  %6 = load ptr, ptr %3, align 8, !tbaa !3
  %7 = load i32, ptr %4, align 4, !tbaa !7
  %8 = call ptr @lv_obj_get_style_prop(ptr noundef %6, i32 noundef %7, i8 noundef zeroext 112)
  %9 = getelementptr inbounds nuw %union.lv_style_value_t, ptr %5, i32 0, i32 0
  store ptr %8, ptr %9, align 8
  %10 = load i32, ptr %5, align 8, !tbaa !9
  call void @llvm.lifetime.end.p0(i64 8, ptr %5) #5
  ret i32 %10
}

; Function Attrs: inlinehint nounwind uwtable
define internal i32 @lv_obj_get_style_transform_pivot_x(ptr noundef %0, i32 noundef %1) #3 {
  %3 = alloca ptr, align 8
  %4 = alloca i32, align 4
  %5 = alloca %union.lv_style_value_t, align 8
  store ptr %0, ptr %3, align 8, !tbaa !3
  store i32 %1, ptr %4, align 4, !tbaa !7
  call void @llvm.lifetime.start.p0(i64 8, ptr %5) #5
  %6 = load ptr, ptr %3, align 8, !tbaa !3
  %7 = load i32, ptr %4, align 4, !tbaa !7
  %8 = call ptr @lv_obj_get_style_prop(ptr noundef %6, i32 noundef %7, i8 noundef zeroext 111)
  %9 = getelementptr inbounds nuw %union.lv_style_value_t, ptr %5, i32 0, i32 0
  store ptr %8, ptr %9, align 8
  %10 = load i32, ptr %5, align 8, !tbaa !9
  call void @llvm.lifetime.end.p0(i64 8, ptr %5) #5
  ret i32 %10
}

; Function Attrs: inlinehint nounwind uwtable
define internal i32 @lv_obj_get_style_transform_scale_y_safe(ptr noundef %0, i32 noundef %1) #3 {
  %3 = alloca ptr, align 8
  %4 = alloca i32, align 4
  %5 = alloca i32, align 4
  store ptr %0, ptr %3, align 8, !tbaa !3
  store i32 %1, ptr %4, align 4, !tbaa !7
  call void @llvm.lifetime.start.p0(i64 4, ptr %5) #5
  %6 = load ptr, ptr %3, align 8, !tbaa !3
  %7 = load i32, ptr %4, align 4, !tbaa !7
  %8 = call i32 @lv_obj_get_style_transform_scale_y(ptr noundef %6, i32 noundef %7)
  store i32 %8, ptr %5, align 4, !tbaa !7
  %9 = load i32, ptr %5, align 4, !tbaa !7
  %10 = icmp sgt i32 %9, 0
  br i1 %10, label %11, label %13

11:                                               ; preds = %2
  %12 = load i32, ptr %5, align 4, !tbaa !7
  br label %14

13:                                               ; preds = %2
  br label %14

14:                                               ; preds = %13, %11
  %15 = phi i32 [ %12, %11 ], [ 1, %13 ]
  call void @llvm.lifetime.end.p0(i64 4, ptr %5) #5
  ret i32 %15
}

; Function Attrs: inlinehint nounwind uwtable
define internal i32 @lv_obj_get_style_transform_scale_x_safe(ptr noundef %0, i32 noundef %1) #3 {
  %3 = alloca ptr, align 8
  %4 = alloca i32, align 4
  %5 = alloca i32, align 4
  store ptr %0, ptr %3, align 8, !tbaa !3
  store i32 %1, ptr %4, align 4, !tbaa !7
  call void @llvm.lifetime.start.p0(i64 4, ptr %5) #5
  %6 = load ptr, ptr %3, align 8, !tbaa !3
  %7 = load i32, ptr %4, align 4, !tbaa !7
  %8 = call i32 @lv_obj_get_style_transform_scale_x(ptr noundef %6, i32 noundef %7)
  store i32 %8, ptr %5, align 4, !tbaa !7
  %9 = load i32, ptr %5, align 4, !tbaa !7
  %10 = icmp sgt i32 %9, 0
  br i1 %10, label %11, label %13

11:                                               ; preds = %2
  %12 = load i32, ptr %5, align 4, !tbaa !7
  br label %14

13:                                               ; preds = %2
  br label %14

14:                                               ; preds = %13, %11
  %15 = phi i32 [ %12, %11 ], [ 1, %13 ]
  call void @llvm.lifetime.end.p0(i64 4, ptr %5) #5
  ret i32 %15
}

; Function Attrs: inlinehint nounwind uwtable
define internal i32 @lv_obj_get_style_transform_rotation(ptr noundef %0, i32 noundef %1) #3 {
  %3 = alloca ptr, align 8
  %4 = alloca i32, align 4
  %5 = alloca %union.lv_style_value_t, align 8
  store ptr %0, ptr %3, align 8, !tbaa !3
  store i32 %1, ptr %4, align 4, !tbaa !7
  call void @llvm.lifetime.start.p0(i64 8, ptr %5) #5
  %6 = load ptr, ptr %3, align 8, !tbaa !3
  %7 = load i32, ptr %4, align 4, !tbaa !7
  %8 = call ptr @lv_obj_get_style_prop(ptr noundef %6, i32 noundef %7, i8 noundef zeroext 110)
  %9 = getelementptr inbounds nuw %union.lv_style_value_t, ptr %5, i32 0, i32 0
  store ptr %8, ptr %9, align 8
  %10 = load i32, ptr %5, align 8, !tbaa !9
  call void @llvm.lifetime.end.p0(i64 8, ptr %5) #5
  ret i32 %10
}

; Function Attrs: nounwind uwtable
define internal void @transform_point_array(ptr noundef %0, ptr noundef %1, i64 noundef %2, i1 noundef zeroext %3) #0 {
  %5 = alloca ptr, align 8
  %6 = alloca ptr, align 8
  %7 = alloca i64, align 8
  %8 = alloca i8, align 1
  %9 = alloca i32, align 4
  %10 = alloca i32, align 4
  %11 = alloca i32, align 4
  %12 = alloca i32, align 4
  %13 = alloca %struct.lv_point_t, align 4
  store ptr %0, ptr %5, align 8, !tbaa !3
  store ptr %1, ptr %6, align 8, !tbaa !3
  store i64 %2, ptr %7, align 8, !tbaa !54
  %14 = zext i1 %3 to i8
  store i8 %14, ptr %8, align 1, !tbaa !10
  call void @llvm.lifetime.start.p0(i64 4, ptr %9) #5
  %15 = load ptr, ptr %5, align 8, !tbaa !3
  %16 = call i32 @lv_obj_get_style_transform_rotation(ptr noundef %15, i32 noundef 0)
  store i32 %16, ptr %9, align 4, !tbaa !7
  call void @llvm.lifetime.start.p0(i64 4, ptr %10) #5
  %17 = load ptr, ptr %5, align 8, !tbaa !3
  %18 = call i32 @lv_obj_get_style_transform_scale_x_safe(ptr noundef %17, i32 noundef 0)
  store i32 %18, ptr %10, align 4, !tbaa !7
  call void @llvm.lifetime.start.p0(i64 4, ptr %11) #5
  %19 = load ptr, ptr %5, align 8, !tbaa !3
  %20 = call i32 @lv_obj_get_style_transform_scale_y_safe(ptr noundef %19, i32 noundef 0)
  store i32 %20, ptr %11, align 4, !tbaa !7
  %21 = load i32, ptr %10, align 4, !tbaa !7
  %22 = icmp eq i32 %21, 0
  br i1 %22, label %23, label %24

23:                                               ; preds = %4
  store i32 1, ptr %10, align 4, !tbaa !7
  br label %24

24:                                               ; preds = %23, %4
  %25 = load i32, ptr %11, align 4, !tbaa !7
  %26 = icmp eq i32 %25, 0
  br i1 %26, label %27, label %28

27:                                               ; preds = %24
  store i32 1, ptr %11, align 4, !tbaa !7
  br label %28

28:                                               ; preds = %27, %24
  %29 = load i32, ptr %9, align 4, !tbaa !7
  %30 = icmp eq i32 %29, 0
  br i1 %30, label %31, label %38

31:                                               ; preds = %28
  %32 = load i32, ptr %10, align 4, !tbaa !7
  %33 = icmp eq i32 %32, 256
  br i1 %33, label %34, label %38

34:                                               ; preds = %31
  %35 = load i32, ptr %11, align 4, !tbaa !7
  %36 = icmp eq i32 %35, 256
  br i1 %36, label %37, label %38

37:                                               ; preds = %34
  store i32 1, ptr %12, align 4
  br label %149

38:                                               ; preds = %34, %31, %28
  call void @llvm.lifetime.start.p0(i64 8, ptr %13) #5
  %39 = getelementptr inbounds nuw %struct.lv_point_t, ptr %13, i32 0, i32 0
  %40 = load ptr, ptr %5, align 8, !tbaa !3
  %41 = call i32 @lv_obj_get_style_transform_pivot_x(ptr noundef %40, i32 noundef 0)
  store i32 %41, ptr %39, align 4, !tbaa !50
  %42 = getelementptr inbounds nuw %struct.lv_point_t, ptr %13, i32 0, i32 1
  %43 = load ptr, ptr %5, align 8, !tbaa !3
  %44 = call i32 @lv_obj_get_style_transform_pivot_y(ptr noundef %43, i32 noundef 0)
  store i32 %44, ptr %42, align 4, !tbaa !51
  %45 = getelementptr inbounds nuw %struct.lv_point_t, ptr %13, i32 0, i32 0
  %46 = load i32, ptr %45, align 4, !tbaa !50
  %47 = and i32 %46, 1610612736
  %48 = icmp eq i32 %47, 536870912
  br i1 %48, label %49, label %76

49:                                               ; preds = %38
  %50 = getelementptr inbounds nuw %struct.lv_point_t, ptr %13, i32 0, i32 0
  %51 = load i32, ptr %50, align 4, !tbaa !50
  %52 = and i32 %51, -1610612737
  %53 = icmp sle i32 %52, 536870910
  br i1 %53, label %54, label %76

54:                                               ; preds = %49
  %55 = getelementptr inbounds nuw %struct.lv_point_t, ptr %13, i32 0, i32 0
  %56 = load i32, ptr %55, align 4, !tbaa !50
  %57 = and i32 %56, -1610612737
  %58 = icmp sgt i32 %57, 268435455
  br i1 %58, label %59, label %64

59:                                               ; preds = %54
  %60 = getelementptr inbounds nuw %struct.lv_point_t, ptr %13, i32 0, i32 0
  %61 = load i32, ptr %60, align 4, !tbaa !50
  %62 = and i32 %61, -1610612737
  %63 = sub nsw i32 268435455, %62
  br label %68

64:                                               ; preds = %54
  %65 = getelementptr inbounds nuw %struct.lv_point_t, ptr %13, i32 0, i32 0
  %66 = load i32, ptr %65, align 4, !tbaa !50
  %67 = and i32 %66, -1610612737
  br label %68

68:                                               ; preds = %64, %59
  %69 = phi i32 [ %63, %59 ], [ %67, %64 ]
  %70 = load ptr, ptr %5, align 8, !tbaa !3
  %71 = getelementptr inbounds nuw %struct._lv_obj_t, ptr %70, i32 0, i32 5
  %72 = call i32 @lv_area_get_width(ptr noundef %71)
  %73 = mul nsw i32 %69, %72
  %74 = sdiv i32 %73, 100
  %75 = getelementptr inbounds nuw %struct.lv_point_t, ptr %13, i32 0, i32 0
  store i32 %74, ptr %75, align 4, !tbaa !50
  br label %76

76:                                               ; preds = %68, %49, %38
  %77 = getelementptr inbounds nuw %struct.lv_point_t, ptr %13, i32 0, i32 1
  %78 = load i32, ptr %77, align 4, !tbaa !51
  %79 = and i32 %78, 1610612736
  %80 = icmp eq i32 %79, 536870912
  br i1 %80, label %81, label %108

81:                                               ; preds = %76
  %82 = getelementptr inbounds nuw %struct.lv_point_t, ptr %13, i32 0, i32 1
  %83 = load i32, ptr %82, align 4, !tbaa !51
  %84 = and i32 %83, -1610612737
  %85 = icmp sle i32 %84, 536870910
  br i1 %85, label %86, label %108

86:                                               ; preds = %81
  %87 = getelementptr inbounds nuw %struct.lv_point_t, ptr %13, i32 0, i32 1
  %88 = load i32, ptr %87, align 4, !tbaa !51
  %89 = and i32 %88, -1610612737
  %90 = icmp sgt i32 %89, 268435455
  br i1 %90, label %91, label %96

91:                                               ; preds = %86
  %92 = getelementptr inbounds nuw %struct.lv_point_t, ptr %13, i32 0, i32 1
  %93 = load i32, ptr %92, align 4, !tbaa !51
  %94 = and i32 %93, -1610612737
  %95 = sub nsw i32 268435455, %94
  br label %100

96:                                               ; preds = %86
  %97 = getelementptr inbounds nuw %struct.lv_point_t, ptr %13, i32 0, i32 1
  %98 = load i32, ptr %97, align 4, !tbaa !51
  %99 = and i32 %98, -1610612737
  br label %100

100:                                              ; preds = %96, %91
  %101 = phi i32 [ %95, %91 ], [ %99, %96 ]
  %102 = load ptr, ptr %5, align 8, !tbaa !3
  %103 = getelementptr inbounds nuw %struct._lv_obj_t, ptr %102, i32 0, i32 5
  %104 = call i32 @lv_area_get_height(ptr noundef %103)
  %105 = mul nsw i32 %101, %104
  %106 = sdiv i32 %105, 100
  %107 = getelementptr inbounds nuw %struct.lv_point_t, ptr %13, i32 0, i32 1
  store i32 %106, ptr %107, align 4, !tbaa !51
  br label %108

108:                                              ; preds = %100, %81, %76
  %109 = load ptr, ptr %5, align 8, !tbaa !3
  %110 = getelementptr inbounds nuw %struct._lv_obj_t, ptr %109, i32 0, i32 5
  %111 = getelementptr inbounds nuw %struct.lv_area_t, ptr %110, i32 0, i32 0
  %112 = load i32, ptr %111, align 8, !tbaa !20
  %113 = getelementptr inbounds nuw %struct.lv_point_t, ptr %13, i32 0, i32 0
  %114 = load i32, ptr %113, align 4, !tbaa !50
  %115 = add nsw i32 %112, %114
  %116 = getelementptr inbounds nuw %struct.lv_point_t, ptr %13, i32 0, i32 0
  store i32 %115, ptr %116, align 4, !tbaa !50
  %117 = load ptr, ptr %5, align 8, !tbaa !3
  %118 = getelementptr inbounds nuw %struct._lv_obj_t, ptr %117, i32 0, i32 5
  %119 = getelementptr inbounds nuw %struct.lv_area_t, ptr %118, i32 0, i32 1
  %120 = load i32, ptr %119, align 4, !tbaa !14
  %121 = getelementptr inbounds nuw %struct.lv_point_t, ptr %13, i32 0, i32 1
  %122 = load i32, ptr %121, align 4, !tbaa !51
  %123 = add nsw i32 %120, %122
  %124 = getelementptr inbounds nuw %struct.lv_point_t, ptr %13, i32 0, i32 1
  store i32 %123, ptr %124, align 4, !tbaa !51
  %125 = load i8, ptr %8, align 1, !tbaa !10, !range !12, !noundef !13
  %126 = trunc i8 %125 to i1
  br i1 %126, label %127, label %140

127:                                              ; preds = %108
  %128 = load i32, ptr %9, align 4, !tbaa !7
  %129 = sub nsw i32 0, %128
  store i32 %129, ptr %9, align 4, !tbaa !7
  %130 = load i32, ptr %10, align 4, !tbaa !7
  %131 = add nsw i32 65536, %130
  %132 = sub nsw i32 %131, 1
  %133 = load i32, ptr %10, align 4, !tbaa !7
  %134 = sdiv i32 %132, %133
  store i32 %134, ptr %10, align 4, !tbaa !7
  %135 = load i32, ptr %11, align 4, !tbaa !7
  %136 = add nsw i32 65536, %135
  %137 = sub nsw i32 %136, 1
  %138 = load i32, ptr %11, align 4, !tbaa !7
  %139 = sdiv i32 %137, %138
  store i32 %139, ptr %11, align 4, !tbaa !7
  br label %140

140:                                              ; preds = %127, %108
  %141 = load ptr, ptr %6, align 8, !tbaa !3
  %142 = load i64, ptr %7, align 8, !tbaa !54
  %143 = load i32, ptr %9, align 4, !tbaa !7
  %144 = load i32, ptr %10, align 4, !tbaa !7
  %145 = load i32, ptr %11, align 4, !tbaa !7
  %146 = load i8, ptr %8, align 1, !tbaa !10, !range !12, !noundef !13
  %147 = trunc i8 %146 to i1
  %148 = xor i1 %147, true
  call void @lv_point_array_transform(ptr noundef %141, i64 noundef %142, i32 noundef %143, i32 noundef %144, i32 noundef %145, ptr noundef %13, i1 noundef zeroext %148)
  call void @llvm.lifetime.end.p0(i64 8, ptr %13) #5
  store i32 0, ptr %12, align 4
  br label %149

149:                                              ; preds = %140, %37
  call void @llvm.lifetime.end.p0(i64 4, ptr %11) #5
  call void @llvm.lifetime.end.p0(i64 4, ptr %10) #5
  call void @llvm.lifetime.end.p0(i64 4, ptr %9) #5
  %150 = load i32, ptr %12, align 4
  switch i32 %150, label %152 [
    i32 0, label %151
    i32 1, label %151
  ]

151:                                              ; preds = %149, %149
  ret void

152:                                              ; preds = %149
  unreachable
}