; Function Attrs: nounwind uwtable
define internal fastcc void @transform_point_array(ptr noundef nonnull %0, ptr noundef %1, i64 noundef %2, i1 noundef zeroext %3) unnamed_addr #0 {
  %5 = alloca %struct.lv_point_t, align 4
  %6 = tail call ptr @lv_obj_get_style_prop(ptr noundef nonnull %0, i32 noundef 0, i8 noundef zeroext 110) #8
  %7 = ptrtoint ptr %6 to i64
  %.sroa.0.0.extract.trunc.i = trunc i64 %7 to i32
  %8 = tail call ptr @lv_obj_get_style_prop(ptr noundef nonnull %0, i32 noundef 0, i8 noundef zeroext 108) #8
  %9 = ptrtoint ptr %8 to i64
  %.sroa.0.0.extract.trunc.i.i = trunc i64 %9 to i32
  %10 = tail call range(i32 1, -2147483648) i32 @llvm.smax.i32(i32 %.sroa.0.0.extract.trunc.i.i, i32 1)
  %11 = tail call ptr @lv_obj_get_style_prop(ptr noundef nonnull %0, i32 noundef 0, i8 noundef zeroext 109) #8
  %12 = ptrtoint ptr %11 to i64
  %.sroa.0.0.extract.trunc.i.i34 = trunc i64 %12 to i32
  %13 = tail call range(i32 1, -2147483648) i32 @llvm.smax.i32(i32 %.sroa.0.0.extract.trunc.i.i34, i32 1)
  %14 = icmp eq i32 %.sroa.0.0.extract.trunc.i, 0
  %15 = icmp eq i32 %.sroa.0.0.extract.trunc.i.i, 256
  %or.cond = select i1 %14, i1 %15, i1 false
  %16 = icmp eq i32 %.sroa.0.0.extract.trunc.i.i34, 256
  %or.cond3 = select i1 %or.cond, i1 %16, i1 false
  br i1 %or.cond3, label %65, label %17

17:                                               ; preds = %4
  call void @llvm.lifetime.start.p0(i64 8, ptr nonnull %5) #8
  %18 = tail call ptr @lv_obj_get_style_prop(ptr noundef nonnull %0, i32 noundef 0, i8 noundef zeroext 111) #8
  %19 = ptrtoint ptr %18 to i64
  %.sroa.0.0.extract.trunc.i35 = trunc i64 %19 to i32
  %20 = getelementptr inbounds nuw i8, ptr %5, i64 4
  %21 = tail call ptr @lv_obj_get_style_prop(ptr noundef nonnull %0, i32 noundef 0, i8 noundef zeroext 112) #8
  %22 = ptrtoint ptr %21 to i64
  %.sroa.0.0.extract.trunc.i36 = trunc i64 %22 to i32
  %23 = and i32 %.sroa.0.0.extract.trunc.i35, 1610612736
  %24 = icmp eq i32 %23, 536870912
  br i1 %24, label %25, label %35

25:                                               ; preds = %17
  %26 = and i32 %.sroa.0.0.extract.trunc.i35, -1610612737
  %.not = icmp eq i32 %26, 536870911
  br i1 %.not, label %35, label %27

27:                                               ; preds = %25
  %28 = icmp sgt i32 %26, 268435455
  %29 = sub nsw i32 268435455, %26
  %30 = select i1 %28, i32 %29, i32 %26
  %31 = getelementptr inbounds nuw i8, ptr %0, i64 40
  %32 = tail call i32 @lv_area_get_width(ptr noundef nonnull %31) #8
  %33 = mul nsw i32 %32, %30
  %34 = sdiv i32 %33, 100
  br label %35

35:                                               ; preds = %27, %25, %17
  %36 = phi i32 [ %34, %27 ], [ %.sroa.0.0.extract.trunc.i35, %25 ], [ %.sroa.0.0.extract.trunc.i35, %17 ]
  %37 = and i32 %.sroa.0.0.extract.trunc.i36, 1610612736
  %38 = icmp eq i32 %37, 536870912
  br i1 %38, label %39, label %49

39:                                               ; preds = %35
  %40 = and i32 %.sroa.0.0.extract.trunc.i36, -1610612737
  %.not33 = icmp eq i32 %40, 536870911
  br i1 %.not33, label %49, label %41

41:                                               ; preds = %39
  %42 = icmp sgt i32 %40, 268435455
  %43 = sub nsw i32 268435455, %40
  %44 = select i1 %42, i32 %43, i32 %40
  %45 = getelementptr inbounds nuw i8, ptr %0, i64 40
  %46 = tail call i32 @lv_area_get_height(ptr noundef nonnull %45) #8
  %47 = mul nsw i32 %46, %44
  %48 = sdiv i32 %47, 100
  br label %49

49:                                               ; preds = %41, %39, %35
  %50 = phi i32 [ %48, %41 ], [ %.sroa.0.0.extract.trunc.i36, %39 ], [ %.sroa.0.0.extract.trunc.i36, %35 ]
  %51 = getelementptr inbounds nuw i8, ptr %0, i64 40
  %52 = load i32, ptr %51, align 8, !tbaa !22
  %53 = add nsw i32 %36, %52
  store i32 %53, ptr %5, align 4, !tbaa !18
  %54 = getelementptr inbounds nuw i8, ptr %0, i64 44
  %55 = load i32, ptr %54, align 4, !tbaa !29
  %56 = add nsw i32 %50, %55
  store i32 %56, ptr %20, align 4, !tbaa !27
  br i1 %3, label %57, label %63

57:                                               ; preds = %49
  %58 = sub nsw i32 0, %.sroa.0.0.extract.trunc.i
  %59 = add nuw nsw i32 %10, 65535
  %60 = udiv i32 %59, %10
  %61 = add nuw nsw i32 %13, 65535
  %62 = udiv i32 %61, %13
  br label %63

63:                                               ; preds = %57, %49
  %.030 = phi i32 [ %58, %57 ], [ %.sroa.0.0.extract.trunc.i, %49 ]
  %.029 = phi i32 [ %60, %57 ], [ %10, %49 ]
  %.0 = phi i32 [ %62, %57 ], [ %13, %49 ]
  %64 = xor i1 %3, true
  call void @lv_point_array_transform(ptr noundef %1, i64 noundef %2, i32 noundef %.030, i32 noundef %.029, i32 noundef %.0, ptr noundef nonnull %5, i1 noundef zeroext %64) #8
  call void @llvm.lifetime.end.p0(i64 8, ptr nonnull %5) #8
  br label %65

65:                                               ; preds = %4, %63
  ret void
}